target datalayout = "e-m:e-p270:32:32-p271:32:32-p272:64:64-i64:64-i128:128-f80:128-n8:16:32:64-S128"
target triple = "x86_64-unknown-linux-gnu"

@_ZN7Imf_3_213RleCompressorD1Ev = hidden unnamed_addr alias void (ptr), ptr @_ZN7Imf_3_213RleCompressorD2Ev

; Function Attrs: mustprogress nounwind uwtable
define hidden void @_ZN7Imf_3_213RleCompressorD0Ev(ptr noundef nonnull align 8 dereferenceable(40) %this) unnamed_addr #5 align 2 {
entry:
  %this.addr = alloca ptr, align 8
  store ptr %this, ptr %this.addr, align 8
  %this1 = load ptr, ptr %this.addr, align 8
  call void @_ZN7Imf_3_213RleCompressorD1Ev(ptr noundef nonnull align 8 dereferenceable(40) %this1) #3
  call void @_ZdlPv(ptr noundef %this1) #10
  ret void
}